target datalayout = "e-m:e-p270:32:32-p271:32:32-p272:64:64-i64:64-i128:128-f80:128-n8:16:32:64-S128"
target triple = "x86_64-pc-linux-gnu"

; Function Attrs: mustprogress nounwind uwtable
define noundef signext i8 @_ZN3net10QuicFramer26GetMinSequenceNumberLengthEm(i64 noundef %0) #1 align 2 {
  %2 = alloca i8, align 1
  %3 = alloca i64, align 8
  store i64 %0, ptr %3, align 8, !tbaa !63
  %4 = load i64, ptr %3, align 8, !tbaa !63
  %5 = icmp ult i64 %4, 256
  br i1 %5, label %6, label %7

6:                                                ; preds = %1
  store i8 1, ptr %2, align 1
  br label %16

7:                                                ; preds = %1
  %8 = load i64, ptr %3, align 8, !tbaa !63
  %9 = icmp ult i64 %8, 65536
  br i1 %9, label %10, label %11

10:                                               ; preds = %7
  store i8 2, ptr %2, align 1
  br label %16

11:                                               ; preds = %7
  %12 = load i64, ptr %3, align 8, !tbaa !63
  %13 = icmp ult i64 %12, 4294967296
  br i1 %13, label %14, label %15

14:                                               ; preds = %11
  store i8 4, ptr %2, align 1
  br label %16

15:                                               ; preds = %11
  store i8 6, ptr %2, align 1
  br label %16

16:                                               ; preds = %15, %14, %10, %6
  %17 = load i8, ptr %2, align 1
  ret i8 %17
}