; Function Attrs: mustprogress nofree norecurse nosync nounwind willreturn memory(none) uwtable
define noundef signext range(i8 1, 7) i8 @_ZN3net10QuicFramer26GetMinSequenceNumberLengthEm(i64 noundef %0) local_unnamed_addr #6 align 2 {
  %2 = icmp ult i64 %0, 256
  br i1 %2, label %7, label %3

3:                                                ; preds = %1
  %4 = icmp ult i64 %0, 65536
  br i1 %4, label %7, label %5

5:                                                ; preds = %3
  %6 = icmp ult i64 %0, 4294967296
  %. = select i1 %6, i8 4, i8 6
  br label %7

7:                                                ; preds = %5, %3, %1
  %.0 = phi i8 [ 1, %1 ], [ 2, %3 ], [ %., %5 ]
  ret i8 %.0
}